target datalayout = "e-m:e-p270:32:32-p271:32:32-p272:64:64-i64:64-i128:128-f80:128-n8:16:32:64-S128"
target triple = "x86_64-pc-linux-gnu"

%struct.AddressSpace = type { %struct.rcu_head, ptr, ptr, ptr, i32, i32, ptr, %union.anon, %union.anon.0, i64, i64, %struct.QemuMutex, %struct.anon }
%struct.rcu_head = type { ptr, ptr }
%union.anon = type { %struct.QTailQLink }
%struct.QTailQLink = type { ptr, ptr }
%union.anon.0 = type { %struct.QTailQLink }
%struct.QemuMutex = type { %union.pthread_mutex_t, i8 }
%union.pthread_mutex_t = type { %struct.__pthread_mutex_s }
%struct.__pthread_mutex_s = type { i32, i32, i32, i32, i32, i16, i16, %struct.__pthread_internal_list }
%struct.__pthread_internal_list = type { ptr, ptr }
%struct.anon = type { ptr }
%struct.VirtIOPCIProxy = type { %struct.PCIDevice, %struct.MemoryRegion, %union.anon.7, %struct.MemoryRegion, %struct.MemoryRegion, %struct.AddressSpace, %struct.AddressSpace, i32, i32, i32, i32, i32, i32, i8, i8, i32, i16, i32, i32, i32, i32, [2 x i32], [1024 x %struct.VirtIOPCIQueue], ptr, i32, %struct.VirtioBusState }
%struct.PCIDevice = type { %struct.DeviceState, i8, i8, ptr, ptr, ptr, ptr, ptr, i32, %struct.PCIReqIDCache, [64 x i8], [7 x %struct.PCIIORegion], %struct.AddressSpace, %struct.MemoryRegion, %struct.MemoryRegion, ptr, ptr, [3 x ptr], i8, i8, i32, i8, i32, ptr, ptr, ptr, ptr, ptr, ptr, %struct.MemoryRegion, %struct.MemoryRegion, %struct.MemoryRegion, ptr, i8, i32, i8, %struct.PCIExpressDevice, ptr, ptr, i32, i8, %struct.MemoryRegion, i32, ptr, ptr, ptr, ptr, i16, %struct.DOECap, ptr, i32, i32 }
%struct.DeviceState = type { %struct.Object, ptr, ptr, i8, i8, i64, i32, i8, ptr, %struct.NamedGPIOListHead, %struct.NamedClockListHead, %struct.BusStateHead, i32, i32, i32, %struct.ResettableState, ptr, %struct.MemReentrancyGuard }
%struct.Object = type { ptr, ptr, ptr, i32, ptr }
%struct.NamedGPIOListHead = type { ptr }
%struct.NamedClockListHead = type { ptr }
%struct.BusStateHead = type { ptr }
%struct.ResettableState = type { i32, i8, i8 }
%struct.MemReentrancyGuard = type { i8 }
%struct.PCIReqIDCache = type { ptr, i32 }
%struct.PCIIORegion = type { i64, i64, i8, ptr, ptr }
%struct.PCIExpressDevice = type { i8, i8, i8, i16, %struct.PCIEAERLog, i16, i16, i16, %struct.PCIESriovPF, %struct.PCIESriovVF }
%struct.PCIEAERLog = type { i16, i16, ptr }
%struct.PCIESriovPF = type { i16, [7 x i8], ptr, ptr }
%struct.PCIESriovVF = type { ptr, i16 }
%struct.DOECap = type { ptr, i16, %struct.anon.4, %struct.anon.5, %struct.anon.6, ptr, ptr, i32, i32, i32, ptr, i16, i32 }
%struct.anon.4 = type { i8, i16 }
%struct.anon.5 = type { i8, i8, i8 }
%struct.anon.6 = type { i8, i8, i8, i8 }
%union.anon.7 = type { %struct.anon.8 }
%struct.anon.8 = type { %struct.VirtIOPCIRegion, %struct.VirtIOPCIRegion, %struct.VirtIOPCIRegion, %struct.VirtIOPCIRegion, %struct.VirtIOPCIRegion }
%struct.VirtIOPCIRegion = type { %struct.MemoryRegion, i32, i32, i32 }
%struct.MemoryRegion = type { %struct.Object, i8, i8, i8, i8, i8, i8, i8, i8, i8, i8, ptr, ptr, ptr, ptr, ptr, ptr, i32, i128, i64, ptr, i64, i8, i8, i8, i8, ptr, i64, i32, %union.anon.1, %union.anon.2, %union.anon.3, ptr, i32, ptr, ptr, i8 }
%union.anon.1 = type { %struct.QTailQLink }
%union.anon.2 = type { %struct.QTailQLink }
%union.anon.3 = type { %struct.QTailQLink }
%struct.VirtIOPCIQueue = type { i16, i8, i8, [2 x i32], [2 x i32], [2 x i32] }
%struct.VirtioBusState = type { %struct.BusState, i8, i32 }
%struct.BusState = type { %struct.Object, ptr, ptr, ptr, i32, i8, i8, i32, %union.BusChildHead, %struct.BusStateEntry, %struct.ResettableState }
%union.BusChildHead = type { %struct.QTailQLink }
%struct.BusStateEntry = type { ptr, ptr }
%struct.VirtIODevice = type { %struct.DeviceState, ptr, i8, i8, i16, i64, i64, i64, i64, ptr, i16, i32, i32, ptr, %struct.MemoryListener, i16, i8, i8, i8, i8, i8, i8, i8, i8, i8, ptr, ptr, i8, i8, ptr, ptr, %union.anon.12, %struct.EventNotifier, i8 }
%struct.MemoryListener = type { ptr, ptr, ptr, ptr, ptr, ptr, ptr, ptr, ptr, ptr, ptr, ptr, ptr, ptr, ptr, ptr, ptr, i32, ptr, ptr, %union.anon.10, %union.anon.11 }
%union.anon.10 = type { %struct.QTailQLink }
%union.anon.11 = type { %struct.QTailQLink }
%union.anon.12 = type { %struct.QTailQLink }
%struct.EventNotifier = type { i32, i32, i8 }
%struct.BusChild = type { %struct.rcu_head, ptr, i32, %union.anon.13 }
%union.anon.13 = type { %struct.QTailQLink }

; Function Attrs: inlinehint nounwind sspstrong uwtable
define internal void @pci_irq_deassert(ptr noundef %0) #4 {
  %2 = alloca ptr, align 8
  store ptr %0, ptr %2, align 8
  %3 = load ptr, ptr %2, align 8
  call void @pci_set_irq(ptr noundef %3, i32 noundef 0)
  ret void
}

; Function Attrs: inlinehint nounwind sspstrong uwtable
define internal ptr @virtio_bus_get_device(ptr noundef %0) #4 {
  %2 = alloca ptr, align 8
  %3 = alloca ptr, align 8
  %4 = alloca ptr, align 8
  %5 = alloca ptr, align 8
  store ptr %0, ptr %2, align 8
  call void @llvm.lifetime.start.p0(i64 8, ptr %3) #13
  %6 = load ptr, ptr %2, align 8
  %7 = getelementptr inbounds nuw %struct.VirtioBusState, ptr %6, i32 0, i32 0
  store ptr %7, ptr %3, align 8
  call void @llvm.lifetime.start.p0(i64 8, ptr %4) #13
  %8 = load ptr, ptr %3, align 8
  %9 = getelementptr inbounds nuw %struct.BusState, ptr %8, i32 0, i32 8
  %10 = load ptr, ptr %9, align 8
  store ptr %10, ptr %4, align 8
  call void @llvm.lifetime.start.p0(i64 8, ptr %5) #13
  %11 = load ptr, ptr %4, align 8
  %12 = icmp ne ptr %11, null
  br i1 %12, label %13, label %17

13:                                               ; preds = %1
  %14 = load ptr, ptr %4, align 8
  %15 = getelementptr inbounds nuw %struct.BusChild, ptr %14, i32 0, i32 1
  %16 = load ptr, ptr %15, align 8
  br label %18

17:                                               ; preds = %1
  br label %18

18:                                               ; preds = %17, %13
  %19 = phi ptr [ %16, %13 ], [ null, %17 ]
  store ptr %19, ptr %5, align 8
  %20 = load ptr, ptr %5, align 8
  call void @llvm.lifetime.end.p0(i64 8, ptr %5) #13
  call void @llvm.lifetime.end.p0(i64 8, ptr %4) #13
  call void @llvm.lifetime.end.p0(i64 8, ptr %3) #13
  ret ptr %20
}

; Function Attrs: nounwind sspstrong uwtable
define internal i64 @virtio_pci_isr_read(ptr noundef %0, i64 noundef %1, i32 noundef %2) #0 {
  %4 = alloca i64, align 8
  %5 = alloca ptr, align 8
  %6 = alloca i64, align 8
  %7 = alloca i32, align 4
  %8 = alloca ptr, align 8
  %9 = alloca ptr, align 8
  %10 = alloca i64, align 8
  %11 = alloca i32, align 4
  %12 = alloca i8, align 1
  %13 = alloca i8, align 1
  %14 = alloca i8, align 1
  %15 = alloca i8, align 1
  store ptr %0, ptr %5, align 8
  store i64 %1, ptr %6, align 8
  store i32 %2, ptr %7, align 4
  call void @llvm.lifetime.start.p0(i64 8, ptr %8) #13
  %16 = load ptr, ptr %5, align 8
  store ptr %16, ptr %8, align 8
  call void @llvm.lifetime.start.p0(i64 8, ptr %9) #13
  %17 = load ptr, ptr %8, align 8
  %18 = getelementptr inbounds nuw %struct.VirtIOPCIProxy, ptr %17, i32 0, i32 25
  %19 = call ptr @virtio_bus_get_device(ptr noundef %18)
  store ptr %19, ptr %9, align 8
  call void @llvm.lifetime.start.p0(i64 8, ptr %10) #13
  store i64 0, ptr %10, align 8, !annotation !4
  %20 = load ptr, ptr %9, align 8
  %21 = icmp eq ptr %20, null
  br i1 %21, label %22, label %23

22:                                               ; preds = %3
  store i64 -1, ptr %4, align 8
  store i32 1, ptr %11, align 4
  br label %38

23:                                               ; preds = %3
  br label %24

24:                                               ; preds = %23
  br i1 false, label %25, label %26

25:                                               ; preds = %24
  call void @qemu_build_not_reached_always() #15, !srcloc !20
  unreachable

26:                                               ; preds = %24
  %27 = load ptr, ptr %9, align 8
  %28 = getelementptr inbounds nuw %struct.VirtIODevice, ptr %27, i32 0, i32 3
  store i8 0, ptr %14, align 1
  %29 = load i8, ptr %14, align 1
  %30 = atomicrmw xchg ptr %28, i8 %29 seq_cst, align 1
  store i8 %30, ptr %15, align 1
  %31 = load i8, ptr %15, align 1
  store i8 %31, ptr %13, align 1
  %32 = load i8, ptr %13, align 1
  store i8 %32, ptr %12, align 1
  %33 = load i8, ptr %12, align 1
  %34 = zext i8 %33 to i64
  store i64 %34, ptr %10, align 8
  %35 = load ptr, ptr %8, align 8
  %36 = getelementptr inbounds nuw %struct.VirtIOPCIProxy, ptr %35, i32 0, i32 0
  call void @pci_irq_deassert(ptr noundef %36)
  %37 = load i64, ptr %10, align 8
  store i64 %37, ptr %4, align 8
  store i32 1, ptr %11, align 4
  br label %38

38:                                               ; preds = %26, %22
  call void @llvm.lifetime.end.p0(i64 8, ptr %10) #13
  call void @llvm.lifetime.end.p0(i64 8, ptr %9) #13
  call void @llvm.lifetime.end.p0(i64 8, ptr %8) #13
  %39 = load i64, ptr %4, align 8
  ret i64 %39
}