; Function Attrs: nounwind sspstrong uwtable
define internal range(i64 -1, 256) i64 @virtio_pci_isr_read(ptr noundef %0, i64 %1, i32 %2) #0 {
  %4 = getelementptr i8, ptr %0, i64 34160
  %.val = load ptr, ptr %4, align 8
  %.not.i = icmp eq ptr %.val, null
  br i1 %.not.i, label %virtio_bus_get_device.exit.thread, label %virtio_bus_get_device.exit

virtio_bus_get_device.exit:                       ; preds = %3
  %5 = getelementptr inbounds nuw i8, ptr %.val, i64 16
  %6 = load ptr, ptr %5, align 8
  %7 = icmp eq ptr %6, null
  br i1 %7, label %virtio_bus_get_device.exit.thread, label %8

8:                                                ; preds = %virtio_bus_get_device.exit
  %9 = getelementptr inbounds nuw i8, ptr %6, i64 161
  %10 = atomicrmw xchg ptr %9, i8 0 seq_cst, align 1
  %11 = zext i8 %10 to i64
  tail call void @pci_set_irq(ptr noundef nonnull %0, i32 noundef 0) #15
  br label %virtio_bus_get_device.exit.thread

virtio_bus_get_device.exit.thread:                ; preds = %3, %virtio_bus_get_device.exit, %8
  %.0 = phi i64 [ %11, %8 ], [ -1, %virtio_bus_get_device.exit ], [ -1, %3 ]
  ret i64 %.0
}